target datalayout = "e-m:e-p270:32:32-p271:32:32-p272:64:64-i64:64-i128:128-f80:128-n8:16:32:64-S128"
target triple = "x86_64-pc-linux-gnu"

%struct._lv_buttonmatrix_t = type { %struct._lv_obj_t, ptr, ptr, ptr, i32, i32, i32, i8 }
%struct._lv_obj_t = type { ptr, ptr, ptr, ptr, ptr, %struct.lv_area_t, i32, i16, i16 }
%struct.lv_area_t = type { i32, i32, i32, i32 }

@lv_buttonmatrix_def_map = internal constant [7 x ptr] [ptr @.str.2, ptr @.str.3, ptr @.str.4, ptr @.str.1, ptr @.str.5, ptr @.str.6, ptr @.str.7], align 16

; Function Attrs: nounwind uwtable
define internal void @lv_buttonmatrix_constructor(ptr noundef %0, ptr noundef %1) #0 {
  %3 = alloca ptr, align 8
  %4 = alloca ptr, align 8
  %5 = alloca ptr, align 8
  store ptr %0, ptr %3, align 8, !tbaa !3
  store ptr %1, ptr %4, align 8, !tbaa !3
  call void @llvm.lifetime.start.p0(i64 8, ptr %5) #4
  %6 = load ptr, ptr %4, align 8, !tbaa !3
  store ptr %6, ptr %5, align 8, !tbaa !3
  %7 = load ptr, ptr %5, align 8, !tbaa !3
  %8 = getelementptr inbounds nuw %struct._lv_buttonmatrix_t, ptr %7, i32 0, i32 4
  store i32 0, ptr %8, align 8, !tbaa !7
  %9 = load ptr, ptr %5, align 8, !tbaa !3
  %10 = getelementptr inbounds nuw %struct._lv_buttonmatrix_t, ptr %9, i32 0, i32 5
  store i32 0, ptr %10, align 4, !tbaa !13
  %11 = load ptr, ptr %5, align 8, !tbaa !3
  %12 = getelementptr inbounds nuw %struct._lv_buttonmatrix_t, ptr %11, i32 0, i32 6
  store i32 65535, ptr %12, align 8, !tbaa !14
  %13 = load ptr, ptr %5, align 8, !tbaa !3
  %14 = getelementptr inbounds nuw %struct._lv_buttonmatrix_t, ptr %13, i32 0, i32 2
  store ptr null, ptr %14, align 8, !tbaa !15
  %15 = load ptr, ptr %5, align 8, !tbaa !3
  %16 = getelementptr inbounds nuw %struct._lv_buttonmatrix_t, ptr %15, i32 0, i32 3
  store ptr null, ptr %16, align 8, !tbaa !16
  %17 = load ptr, ptr %5, align 8, !tbaa !3
  %18 = getelementptr inbounds nuw %struct._lv_buttonmatrix_t, ptr %17, i32 0, i32 1
  store ptr null, ptr %18, align 8, !tbaa !17
  %19 = load ptr, ptr %5, align 8, !tbaa !3
  %20 = getelementptr inbounds nuw %struct._lv_buttonmatrix_t, ptr %19, i32 0, i32 7
  %21 = load i8, ptr %20, align 4
  %22 = and i8 %21, -2
  %23 = or i8 %22, 0
  store i8 %23, ptr %20, align 4
  %24 = load ptr, ptr %4, align 8, !tbaa !3
  call void @lv_buttonmatrix_set_map(ptr noundef %24, ptr noundef @lv_buttonmatrix_def_map)
  call void @llvm.lifetime.end.p0(i64 8, ptr %5) #4
  ret void
}