; Function Attrs: nounwind uwtable
define internal void @lv_buttonmatrix_constructor(ptr nocapture readnone %0, ptr noundef %1) #0 {
  %3 = getelementptr inbounds nuw i8, ptr %1, i64 88
  store i32 0, ptr %3, align 8, !tbaa !3
  %4 = getelementptr inbounds nuw i8, ptr %1, i64 92
  store i32 0, ptr %4, align 4, !tbaa !12
  %5 = getelementptr inbounds nuw i8, ptr %1, i64 96
  store i32 65535, ptr %5, align 8, !tbaa !13
  %6 = getelementptr inbounds nuw i8, ptr %1, i64 64
  %7 = getelementptr inbounds nuw i8, ptr %1, i64 100
  tail call void @llvm.memset.p0.i64(ptr noundef nonnull align 8 dereferenceable(24) %6, i8 0, i64 24, i1 false)
  %8 = load i8, ptr %7, align 4
  %9 = and i8 %8, -2
  store i8 %9, ptr %7, align 4
  tail call void @lv_buttonmatrix_set_map(ptr noundef %1, ptr noundef nonnull @lv_buttonmatrix_def_map)
  ret void
}